; Function Attrs: nounwind uwtable
define void @FT_Set_Default_Properties(ptr noundef %0) local_unnamed_addr #0 {
  %2 = alloca [129 x i8], align 16
  %3 = alloca [129 x i8], align 16
  %4 = alloca [129 x i8], align 16
  %5 = tail call ptr @getenv(ptr noundef nonnull @.str) #3
  %.not = icmp eq ptr %5, null
  br i1 %.not, label %.loopexit, label %.preheader73

.preheader73:                                     ; preds = %1, %38
  %.045 = phi ptr [ %39, %38 ], [ %5, %1 ]
  %6 = load i8, ptr %.045, align 1
  switch i8 %6, label %.preheader72 [
    i8 0, label %.loopexit
    i8 32, label %38
    i8 9, label %38
  ]

.preheader72thread-pre-split:                     ; preds = %8
  %.pr = load i8, ptr %9, align 1
  br label %.preheader72

.preheader72:                                     ; preds = %.preheader73, %.preheader72thread-pre-split
  %7 = phi i8 [ %.pr, %.preheader72thread-pre-split ], [ %6, %.preheader73 ]
  %indvars.iv = phi i64 [ %indvars.iv.next, %.preheader72thread-pre-split ], [ 0, %.preheader73 ]
  %.14674 = phi ptr [ %9, %.preheader72thread-pre-split ], [ %.045, %.preheader73 ]
  switch i8 %7, label %8 [
    i8 0, label %11
    i8 58, label %11
  ]

8:                                                ; preds = %.preheader72
  %9 = getelementptr inbounds i8, ptr %.14674, i64 1
  %10 = getelementptr inbounds [129 x i8], ptr %2, i64 0, i64 %indvars.iv
  store i8 %7, ptr %10, align 1
  %indvars.iv.next = add nuw nsw i64 %indvars.iv, 1
  %exitcond.not = icmp eq i64 %indvars.iv.next, 128
  br i1 %exitcond.not, label %11, label %.preheader72thread-pre-split, !llvm.loop !6

11:                                               ; preds = %.preheader72, %.preheader72, %8
  %.146.lcssa = phi ptr [ %.14674, %.preheader72 ], [ %.14674, %.preheader72 ], [ %9, %8 ]
  %.0.lcssa = phi i64 [ %indvars.iv, %.preheader72 ], [ %indvars.iv, %.preheader72 ], [ 128, %8 ]
  %12 = and i64 %.0.lcssa, 4294967295
  %13 = getelementptr inbounds [129 x i8], ptr %2, i64 0, i64 %12
  store i8 0, ptr %13, align 1
  %14 = load i8, ptr %.146.lcssa, align 1
  %cond = icmp ne i8 %14, 58
  %15 = icmp eq ptr %.146.lcssa, %.045
  %or.cond = or i1 %cond, %15
  br i1 %or.cond, label %.loopexit, label %.preheader71

.preheader71:                                     ; preds = %11
  %.247.ptr76 = getelementptr inbounds i8, ptr %.146.lcssa, i64 1
  br label %16

16:                                               ; preds = %.preheader71, %18
  %indvars.iv85 = phi i64 [ 0, %.preheader71 ], [ %indvars.iv.next86, %18 ]
  %.247.ptr79 = phi ptr [ %.247.ptr76, %.preheader71 ], [ %.247.ptr, %18 ]
  %.247.idx77 = phi i64 [ 1, %.preheader71 ], [ %.247.add, %18 ]
  %17 = load i8, ptr %.247.ptr79, align 1
  switch i8 %17, label %18 [
    i8 0, label %20
    i8 61, label %20
  ]

18:                                               ; preds = %16
  %.247.add = add nuw nsw i64 %.247.idx77, 1
  %19 = getelementptr inbounds [129 x i8], ptr %3, i64 0, i64 %indvars.iv85
  store i8 %17, ptr %19, align 1
  %indvars.iv.next86 = add nuw nsw i64 %indvars.iv85, 1
  %.247.ptr = getelementptr inbounds i8, ptr %.146.lcssa, i64 %.247.add
  %exitcond88.not = icmp eq i64 %indvars.iv.next86, 128
  br i1 %exitcond88.not, label %20, label %16, !llvm.loop !7

20:                                               ; preds = %16, %16, %18
  %.247.idx.lcssa = phi i64 [ %.247.idx77, %16 ], [ %.247.idx77, %16 ], [ 129, %18 ]
  %.1.lcssa = phi i64 [ %indvars.iv85, %16 ], [ %indvars.iv85, %16 ], [ 128, %18 ]
  %.247.ptr.lcssa = phi ptr [ %.247.ptr79, %16 ], [ %.247.ptr79, %16 ], [ %.247.ptr, %18 ]
  %21 = and i64 %.1.lcssa, 4294967295
  %22 = getelementptr inbounds [129 x i8], ptr %3, i64 0, i64 %21
  store i8 0, ptr %22, align 1
  %23 = load i8, ptr %.247.ptr.lcssa, align 1
  %cond69 = icmp ne i8 %23, 61
  %24 = icmp eq i64 %.247.idx.lcssa, 1
  %or.cond70 = select i1 %cond69, i1 true, i1 %24
  br i1 %or.cond70, label %.loopexit, label %.preheader

.preheader:                                       ; preds = %20
  %.3.ptr80 = getelementptr inbounds i8, ptr %.247.ptr.lcssa, i64 1
  br label %25

25:                                               ; preds = %.preheader, %27
  %indvars.iv89 = phi i64 [ 0, %.preheader ], [ %indvars.iv.next90, %27 ]
  %.3.ptr83 = phi ptr [ %.3.ptr80, %.preheader ], [ %.3.ptr, %27 ]
  %.3.idx81 = phi i64 [ 1, %.preheader ], [ %.3.add, %27 ]
  %26 = load i8, ptr %.3.ptr83, align 1
  switch i8 %26, label %27 [
    i8 0, label %29
    i8 32, label %29
    i8 9, label %29
  ]

27:                                               ; preds = %25
  %.3.add = add nuw nsw i64 %.3.idx81, 1
  %28 = getelementptr inbounds [129 x i8], ptr %4, i64 0, i64 %indvars.iv89
  store i8 %26, ptr %28, align 1
  %indvars.iv.next90 = add nuw nsw i64 %indvars.iv89, 1
  %.3.ptr = getelementptr inbounds i8, ptr %.247.ptr.lcssa, i64 %.3.add
  %exitcond92.not = icmp eq i64 %indvars.iv.next90, 128
  br i1 %exitcond92.not, label %29, label %25, !llvm.loop !8

29:                                               ; preds = %25, %25, %25, %27
  %.3.idx.lcssa = phi i64 [ %.3.idx81, %25 ], [ %.3.idx81, %25 ], [ %.3.idx81, %25 ], [ 129, %27 ]
  %.2.lcssa = phi i64 [ %indvars.iv89, %25 ], [ %indvars.iv89, %25 ], [ %indvars.iv89, %25 ], [ 128, %27 ]
  %.3.ptr.lcssa = phi ptr [ %.3.ptr83, %25 ], [ %.3.ptr83, %25 ], [ %.3.ptr83, %25 ], [ %.3.ptr, %27 ]
  %30 = and i64 %.2.lcssa, 4294967295
  %31 = getelementptr inbounds [129 x i8], ptr %4, i64 0, i64 %30
  store i8 0, ptr %31, align 1
  %32 = load i8, ptr %.3.ptr.lcssa, align 1
  switch i8 %32, label %.loopexit [
    i8 0, label %33
    i8 32, label %33
    i8 9, label %33
  ]

33:                                               ; preds = %29, %29, %29
  %34 = icmp eq i64 %.3.idx.lcssa, 1
  br i1 %34, label %.loopexit, label %35

35:                                               ; preds = %33
  %36 = call i32 @ft_property_string_set(ptr noundef %0, ptr noundef nonnull %2, ptr noundef nonnull %3, ptr noundef nonnull %4) #3
  %37 = load i8, ptr %.3.ptr.lcssa, align 1
  %.not68 = icmp eq i8 %37, 0
  br i1 %.not68, label %.loopexit, label %38

38:                                               ; preds = %.preheader73, %.preheader73, %35
  %.4 = phi ptr [ %.3.ptr.lcssa, %35 ], [ %.045, %.preheader73 ], [ %.045, %.preheader73 ]
  %39 = getelementptr inbounds i8, ptr %.4, i64 1
  br label %.preheader73, !llvm.loop !9

.loopexit:                                        ; preds = %20, %11, %29, %.preheader73, %35, %33, %1
  ret void
}